; Function Attrs: mustprogress uwtable
define void @_ZN5faiss26LocalSearchCoarseQuantizerC2Ev(ptr noundef nonnull align 8 dereferenceable(472) %0) unnamed_addr #2 align 2 personality ptr @__gxx_personality_v0 {
  %2 = getelementptr inbounds i8, ptr %0, i64 8
  store i32 0, ptr %2, align 8
  %3 = getelementptr inbounds i8, ptr %0, i64 16
  store i64 0, ptr %3, align 8
  %4 = getelementptr inbounds i8, ptr %0, i64 24
  store i8 0, ptr %4, align 8
  %5 = getelementptr inbounds i8, ptr %0, i64 25
  store i8 1, ptr %5, align 1
  %6 = getelementptr inbounds i8, ptr %0, i64 28
  store i32 1, ptr %6, align 4
  %7 = getelementptr inbounds i8, ptr %0, i64 32
  store float 0.000000e+00, ptr %7, align 8
  %8 = getelementptr inbounds i8, ptr %0, i64 40
  tail call void @llvm.memset.p0.i64(ptr noundef nonnull align 8 dereferenceable(32) %8, i8 0, i64 32, i1 false)
  store ptr getelementptr inbounds ({ [24 x ptr] }, ptr @_ZTVN5faiss26LocalSearchCoarseQuantizerE, i64 0, i32 0, i64 2), ptr %0, align 8
  %9 = getelementptr inbounds i8, ptr %0, i64 72
  invoke void @_ZN5faiss20LocalSearchQuantizerC1Ev(ptr noundef nonnull align 8 dereferenceable(393) %9)
          to label %10 unwind label %11

10:                                               ; preds = %1
  store ptr %9, ptr %8, align 8
  ret void

11:                                               ; preds = %1
  %12 = landingpad { ptr, i32 }
          cleanup
  tail call void @_ZN5faiss23AdditiveCoarseQuantizerD2Ev(ptr noundef nonnull align 8 dereferenceable(72) %0) #14
  resume { ptr, i32 } %12
}